; Function Attrs: mustprogress uwtable
define hidden void @hb_font_set_funcs(ptr nocapture noundef %0, ptr noundef %1, ptr noundef %2, ptr noundef %3) local_unnamed_addr #1 {
  %5 = getelementptr inbounds i8, ptr %0, i64 4
  %6 = load atomic i32, ptr %5 monotonic, align 4
  %.not.i = icmp eq i32 %6, 0
  br i1 %.not.i, label %7, label %9

7:                                                ; preds = %4
  %.not21 = icmp eq ptr %3, null
  br i1 %.not21, label %26, label %8

8:                                                ; preds = %7
  tail call void %3(ptr noundef %2)
  br label %26

9:                                                ; preds = %4
  %10 = getelementptr inbounds i8, ptr %0, i64 16
  %11 = load i32, ptr %10, align 8
  %12 = add i32 %11, 1
  store i32 %12, ptr %10, align 8
  %13 = getelementptr inbounds i8, ptr %0, i64 160
  %14 = load ptr, ptr %13, align 8
  %.not = icmp eq ptr %14, null
  br i1 %.not, label %18, label %15

15:                                               ; preds = %9
  %16 = getelementptr inbounds i8, ptr %0, i64 152
  %17 = load ptr, ptr %16, align 8
  tail call void %14(ptr noundef %17)
  br label %18

18:                                               ; preds = %15, %9
  %.not20 = icmp eq ptr %1, null
  %spec.select = select i1 %.not20, ptr @_ZL22_hb_font_funcs_default, ptr %1
  %19 = load atomic i32, ptr %spec.select monotonic, align 4
  %20 = load atomic i32, ptr %spec.select monotonic, align 4
  %.not.i7.i.i = icmp eq i32 %20, 0
  br i1 %.not.i7.i.i, label %hb_font_funcs_reference.exit, label %21

21:                                               ; preds = %18
  %22 = atomicrmw add ptr %spec.select, i32 1 acq_rel, align 4
  br label %hb_font_funcs_reference.exit

hb_font_funcs_reference.exit:                     ; preds = %18, %21
  %23 = getelementptr inbounds i8, ptr %0, i64 144
  %24 = load ptr, ptr %23, align 8
  tail call void @hb_font_funcs_destroy(ptr noundef %24)
  store ptr %spec.select, ptr %23, align 8
  %25 = getelementptr inbounds i8, ptr %0, i64 152
  store ptr %2, ptr %25, align 8
  store ptr %3, ptr %13, align 8
  br label %26

26:                                               ; preds = %7, %8, %hb_font_funcs_reference.exit
  ret void
}